target datalayout = "e-m:e-p270:32:32-p271:32:32-p272:64:64-i64:64-i128:128-f80:128-n8:16:32:64-S128"
target triple = "x86_64-pc-linux-gnu"

@.str.1 = private unnamed_addr constant [34 x i8] c"../openssl/crypto/conf/conf_mod.c\00", align 1

; Function Attrs: inlinehint nounwind uwtable
define internal i32 @ERR_GET_REASON(i64 noundef %0) #3 {
  %2 = alloca i32, align 4
  %3 = alloca i64, align 8
  store i64 %0, ptr %3, align 8, !tbaa !10
  %4 = load i64, ptr %3, align 8, !tbaa !10
  %5 = and i64 %4, 2147483648
  %6 = icmp ne i64 %5, 0
  br i1 %6, label %7, label %11

7:                                                ; preds = %1
  %8 = load i64, ptr %3, align 8, !tbaa !10
  %9 = and i64 %8, 2147483647
  %10 = trunc i64 %9 to i32
  store i32 %10, ptr %2, align 4
  br label %15

11:                                               ; preds = %1
  %12 = load i64, ptr %3, align 8, !tbaa !10
  %13 = and i64 %12, 8388607
  %14 = trunc i64 %13 to i32
  store i32 %14, ptr %2, align 4
  br label %15

15:                                               ; preds = %11, %7
  %16 = load i32, ptr %2, align 4
  ret i32 %16
}

; Function Attrs: nounwind uwtable
define i32 @CONF_modules_load_file_ex(ptr noundef %0, ptr noundef %1, ptr noundef %2, i64 noundef %3) #0 {
  %5 = alloca ptr, align 8
  %6 = alloca ptr, align 8
  %7 = alloca ptr, align 8
  %8 = alloca i64, align 8
  %9 = alloca ptr, align 8
  %10 = alloca ptr, align 8
  %11 = alloca i32, align 4
  %12 = alloca i32, align 4
  store ptr %0, ptr %5, align 8, !tbaa !29
  store ptr %1, ptr %6, align 8, !tbaa !8
  store ptr %2, ptr %7, align 8, !tbaa !8
  store i64 %3, ptr %8, align 8, !tbaa !10
  call void @llvm.lifetime.start.p0(i64 8, ptr %9) #6
  store ptr null, ptr %9, align 8, !tbaa !8
  call void @llvm.lifetime.start.p0(i64 8, ptr %10) #6
  store ptr null, ptr %10, align 8, !tbaa !3
  call void @llvm.lifetime.start.p0(i64 4, ptr %11) #6
  store i32 0, ptr %11, align 4, !tbaa !14
  call void @llvm.lifetime.start.p0(i64 4, ptr %12) #6
  %13 = load ptr, ptr %5, align 8, !tbaa !29
  %14 = call i32 @OSSL_LIB_CTX_get_conf_diagnostics(ptr noundef %13)
  store i32 %14, ptr %12, align 4, !tbaa !14
  %15 = call i32 @ERR_set_mark()
  %16 = load ptr, ptr %6, align 8, !tbaa !8
  %17 = icmp eq ptr %16, null
  br i1 %17, label %18, label %30

18:                                               ; preds = %4
  %19 = call ptr @CONF_get1_default_config_file()
  store ptr %19, ptr %9, align 8, !tbaa !8
  %20 = load ptr, ptr %9, align 8, !tbaa !8
  %21 = icmp eq ptr %20, null
  br i1 %21, label %22, label %23

22:                                               ; preds = %18
  br label %60

23:                                               ; preds = %18
  %24 = load ptr, ptr %9, align 8, !tbaa !8
  %25 = load i8, ptr %24, align 1, !tbaa !30
  %26 = sext i8 %25 to i32
  %27 = icmp eq i32 %26, 0
  br i1 %27, label %28, label %29

28:                                               ; preds = %23
  store i32 1, ptr %11, align 4, !tbaa !14
  br label %60

29:                                               ; preds = %23
  br label %32

30:                                               ; preds = %4
  %31 = load ptr, ptr %6, align 8, !tbaa !8
  store ptr %31, ptr %9, align 8, !tbaa !8
  br label %32

32:                                               ; preds = %30, %29
  %33 = load ptr, ptr %5, align 8, !tbaa !29
  %34 = call ptr @NCONF_new_ex(ptr noundef %33, ptr noundef null)
  store ptr %34, ptr %10, align 8, !tbaa !3
  %35 = load ptr, ptr %10, align 8, !tbaa !3
  %36 = icmp eq ptr %35, null
  br i1 %36, label %37, label %38

37:                                               ; preds = %32
  br label %60

38:                                               ; preds = %32
  %39 = load ptr, ptr %10, align 8, !tbaa !3
  %40 = load ptr, ptr %9, align 8, !tbaa !8
  %41 = call i32 @NCONF_load(ptr noundef %39, ptr noundef %40, ptr noundef null)
  %42 = icmp sle i32 %41, 0
  br i1 %42, label %43, label %53

43:                                               ; preds = %38
  %44 = load i64, ptr %8, align 8, !tbaa !10
  %45 = and i64 %44, 16
  %46 = icmp ne i64 %45, 0
  br i1 %46, label %47, label %52

47:                                               ; preds = %43
  %48 = call i64 @ERR_peek_last_error()
  %49 = call i32 @ERR_GET_REASON(i64 noundef %48)
  %50 = icmp eq i32 %49, 114
  br i1 %50, label %51, label %52

51:                                               ; preds = %47
  store i32 1, ptr %11, align 4, !tbaa !14
  br label %52

52:                                               ; preds = %51, %47, %43
  br label %60

53:                                               ; preds = %38
  %54 = load ptr, ptr %10, align 8, !tbaa !3
  %55 = load ptr, ptr %7, align 8, !tbaa !8
  %56 = load i64, ptr %8, align 8, !tbaa !10
  %57 = call i32 @CONF_modules_load(ptr noundef %54, ptr noundef %55, i64 noundef %56)
  store i32 %57, ptr %11, align 4, !tbaa !14
  %58 = load ptr, ptr %5, align 8, !tbaa !29
  %59 = call i32 @OSSL_LIB_CTX_get_conf_diagnostics(ptr noundef %58)
  store i32 %59, ptr %12, align 4, !tbaa !14
  br label %60

60:                                               ; preds = %53, %52, %37, %28, %22
  %61 = load ptr, ptr %6, align 8, !tbaa !8
  %62 = icmp eq ptr %61, null
  br i1 %62, label %63, label %65

63:                                               ; preds = %60
  %64 = load ptr, ptr %9, align 8, !tbaa !8
  call void @CRYPTO_free(ptr noundef %64, ptr noundef @.str.1, i32 noundef 231)
  br label %65

65:                                               ; preds = %63, %60
  %66 = load ptr, ptr %10, align 8, !tbaa !3
  call void @NCONF_free(ptr noundef %66)
  %67 = load i64, ptr %8, align 8, !tbaa !10
  %68 = and i64 %67, 2
  %69 = icmp ne i64 %68, 0
  br i1 %69, label %70, label %74

70:                                               ; preds = %65
  %71 = load i32, ptr %12, align 4, !tbaa !14
  %72 = icmp ne i32 %71, 0
  br i1 %72, label %74, label %73

73:                                               ; preds = %70
  store i32 1, ptr %11, align 4, !tbaa !14
  br label %74

74:                                               ; preds = %73, %70, %65
  %75 = load i32, ptr %11, align 4, !tbaa !14
  %76 = icmp sgt i32 %75, 0
  br i1 %76, label %77, label %79

77:                                               ; preds = %74
  %78 = call i32 @ERR_pop_to_mark()
  br label %81

79:                                               ; preds = %74
  %80 = call i32 @ERR_clear_last_mark()
  br label %81

81:                                               ; preds = %79, %77
  %82 = load i32, ptr %11, align 4, !tbaa !14
  call void @llvm.lifetime.end.p0(i64 4, ptr %12) #6
  call void @llvm.lifetime.end.p0(i64 4, ptr %11) #6
  call void @llvm.lifetime.end.p0(i64 8, ptr %10) #6
  call void @llvm.lifetime.end.p0(i64 8, ptr %9) #6
  ret i32 %82
}