; Function Attrs: nounwind uwtable
define range(i32 -1, 2) i32 @CONF_modules_load_file_ex(ptr noundef %0, ptr noundef %1, ptr noundef %2, i64 noundef %3) local_unnamed_addr #0 {
  %5 = tail call i32 @OSSL_LIB_CTX_get_conf_diagnostics(ptr noundef %0) #7
  %6 = tail call i32 @ERR_set_mark() #7
  %7 = icmp eq ptr %1, null
  br i1 %7, label %8, label %14

8:                                                ; preds = %4
  %9 = tail call ptr @CONF_get1_default_config_file()
  %10 = icmp eq ptr %9, null
  br i1 %10, label %.thread, label %11

11:                                               ; preds = %8
  %12 = load i8, ptr %9, align 1, !tbaa !37
  %13 = icmp eq i8 %12, 0
  br i1 %13, label %.thread, label %14

14:                                               ; preds = %4, %11
  %.124 = phi ptr [ %9, %11 ], [ %1, %4 ]
  %15 = tail call ptr @NCONF_new_ex(ptr noundef %0, ptr noundef null) #7
  %16 = icmp eq ptr %15, null
  br i1 %16, label %30, label %17

17:                                               ; preds = %14
  %18 = tail call i32 @NCONF_load(ptr noundef nonnull %15, ptr noundef nonnull %.124, ptr noundef null) #7
  %19 = icmp slt i32 %18, 1
  br i1 %19, label %20, label %27

20:                                               ; preds = %17
  %21 = and i64 %3, 16
  %.not = icmp eq i64 %21, 0
  br i1 %.not, label %30, label %22

22:                                               ; preds = %20
  %23 = tail call i64 @ERR_peek_last_error() #7
  %24 = and i64 %23, 2147483648
  %.not.i = icmp eq i64 %24, 0
  %25 = trunc i64 %23 to i32
  %.0.v.i = select i1 %.not.i, i32 8388607, i32 2147483647
  %.0.i = and i32 %.0.v.i, %25
  %26 = icmp eq i32 %.0.i, 114
  %spec.select = zext i1 %26 to i32
  br label %30

27:                                               ; preds = %17
  %28 = tail call i32 @CONF_modules_load(ptr noundef nonnull %15, ptr noundef %2, i64 noundef %3)
  %29 = tail call i32 @OSSL_LIB_CTX_get_conf_diagnostics(ptr noundef %0) #7
  br label %30

30:                                               ; preds = %22, %20, %14, %27
  %.021 = phi i32 [ 0, %14 ], [ 0, %20 ], [ %28, %27 ], [ %spec.select, %22 ]
  %.0 = phi i32 [ %5, %14 ], [ %5, %20 ], [ %29, %27 ], [ %5, %22 ]
  br i1 %7, label %.thread, label %31

.thread:                                          ; preds = %8, %11, %30
  %.041 = phi i32 [ %.0, %30 ], [ %5, %11 ], [ %5, %8 ]
  %.02139 = phi i32 [ %.021, %30 ], [ 1, %11 ], [ 0, %8 ]
  %.02237 = phi ptr [ %15, %30 ], [ null, %11 ], [ null, %8 ]
  %.02335 = phi ptr [ %.124, %30 ], [ %9, %11 ], [ null, %8 ]
  tail call void @CRYPTO_free(ptr noundef %.02335, ptr noundef nonnull @.str.1, i32 noundef 231) #7
  br label %31

31:                                               ; preds = %.thread, %30
  %.040 = phi i32 [ %.041, %.thread ], [ %.0, %30 ]
  %.02138 = phi i32 [ %.02139, %.thread ], [ %.021, %30 ]
  %.02236 = phi ptr [ %.02237, %.thread ], [ %15, %30 ]
  tail call void @NCONF_free(ptr noundef %.02236) #7
  %32 = and i64 %3, 2
  %33 = icmp eq i64 %32, 0
  %34 = icmp ne i32 %.040, 0
  %or.cond = select i1 %33, i1 true, i1 %34
  %spec.select30 = select i1 %or.cond, i32 %.02138, i32 1
  %35 = icmp sgt i32 %spec.select30, 0
  br i1 %35, label %36, label %38

36:                                               ; preds = %31
  %37 = tail call i32 @ERR_pop_to_mark() #7
  br label %40

38:                                               ; preds = %31
  %39 = tail call i32 @ERR_clear_last_mark() #7
  br label %40

40:                                               ; preds = %38, %36
  ret i32 %spec.select30
}